#include <math.h>
#include <stdio.h>
#include <stdlib.h>
#include <string.h>

int main()

{
	int n,i,j,s[10000],t=0,k=0;

	scanf("%d",&n);

	for(j=n;j>=3;j--)
	{
		t=0;
		for(i=2;i<=n/2;i++)
		{
		   if(j%i==0&&i!=j)t=1;
		}
		if(t==0)
		{
			s[k]=j;

			k++;
		}
	}

	 
      t=0;

	 for(i=k-1;i>0;i--)
	{  
	    if(s[i]+2==s[i-1])
		{
		printf("%d %d\n",s[i],s[i-1]);

		t=1;
		}
	}
	 if(t==0)printf("empty");
	return 0;
}